target datalayout = "e-m:e-p270:32:32-p271:32:32-p272:64:64-i64:64-i128:128-f80:128-n8:16:32:64-S128"
target triple = "x86_64-pc-linux-gnu"

%struct.test_fixture = type { ptr, i32, ptr, ptr }
%struct.ossl_cmp_ctx_st = type { ptr, ptr, ptr, i32, ptr, ptr, ptr, ptr, ptr, i32, ptr, ptr, i32, i32, i32, i32, i64, ptr, ptr, i32, i32, ptr, ptr, ptr, ptr, ptr, i32, i32, i32, ptr, ptr, ptr, ptr, ptr, i64, ptr, i32, i32, ptr, ptr, ptr, ptr, ptr, ptr, ptr, ptr, i32, i32, ptr, ptr, i32, ptr, ptr, i32, ptr, ptr, i32, i32, ptr, ptr, i32, i32, ptr, ptr, i32, ptr, i32, ptr, i32, ptr, ptr, ptr, ptr, ptr, ptr }

@.str.13 = private unnamed_addr constant [31 x i8] c"../openssl/test/cmp_hdr_test.c\00", align 1
@.str.19 = private unnamed_addr constant [36 x i8] c"ossl_cmp_hdr_get_pvno(fixture->hdr)\00", align 1
@.str.25 = private unnamed_addr constant [50 x i8] c"ossl_cmp_hdr_init(fixture->cmp_ctx, fixture->hdr)\00", align 1
@.str.27 = private unnamed_addr constant [2 x i8] c"0\00", align 1
@.str.67 = private unnamed_addr constant [18 x i8] c"fixture->expected\00", align 1
@.str.68 = private unnamed_addr constant [14 x i8] c"OSSL_CMP_PVNO\00", align 1
@.str.69 = private unnamed_addr constant [67 x i8] c"ASN1_OCTET_STRING_cmp(header_nonce, fixture->cmp_ctx->senderNonce)\00", align 1
@.str.70 = private unnamed_addr constant [82 x i8] c"ASN1_OCTET_STRING_cmp(header_transactionID, fixture->cmp_ctx->transactionID) == 0\00", align 1
@.str.71 = private unnamed_addr constant [13 x i8] c"header_nonce\00", align 1
@.str.72 = private unnamed_addr constant [47 x i8] c"ASN1_OCTET_STRING_cmp(header_nonce, ctx_nonce)\00", align 1

; Function Attrs: nounwind uwtable
define internal i32 @execute_HDR_init_test(ptr noundef %0) #0 {
  %2 = alloca i32, align 4
  %3 = alloca ptr, align 8
  %4 = alloca ptr, align 8
  %5 = alloca ptr, align 8
  %6 = alloca ptr, align 8
  %7 = alloca i32, align 4
  store ptr %0, ptr %3, align 8, !tbaa !4
  call void @llvm.lifetime.start.p0(i64 8, ptr %4) #7
  call void @llvm.lifetime.start.p0(i64 8, ptr %5) #7
  call void @llvm.lifetime.start.p0(i64 8, ptr %6) #7
  %8 = load ptr, ptr %3, align 8, !tbaa !4
  %9 = getelementptr inbounds nuw %struct.test_fixture, ptr %8, i32 0, i32 1
  %10 = load i32, ptr %9, align 8, !tbaa !11
  %11 = load ptr, ptr %3, align 8, !tbaa !4
  %12 = getelementptr inbounds nuw %struct.test_fixture, ptr %11, i32 0, i32 2
  %13 = load ptr, ptr %12, align 8, !tbaa !16
  %14 = load ptr, ptr %3, align 8, !tbaa !4
  %15 = getelementptr inbounds nuw %struct.test_fixture, ptr %14, i32 0, i32 3
  %16 = load ptr, ptr %15, align 8, !tbaa !21
  %17 = call i32 @ossl_cmp_hdr_init(ptr noundef %13, ptr noundef %16)
  %18 = call i32 @test_int_eq(ptr noundef @.str.13, i32 noundef 417, ptr noundef @.str.67, ptr noundef @.str.25, i32 noundef %10, i32 noundef %17)
  %19 = icmp ne i32 %18, 0
  br i1 %19, label %21, label %20

20:                                               ; preds = %1
  store i32 0, ptr %2, align 4
  store i32 1, ptr %7, align 4
  br label %93

21:                                               ; preds = %1
  %22 = load ptr, ptr %3, align 8, !tbaa !4
  %23 = getelementptr inbounds nuw %struct.test_fixture, ptr %22, i32 0, i32 1
  %24 = load i32, ptr %23, align 8, !tbaa !11
  %25 = icmp eq i32 %24, 0
  br i1 %25, label %26, label %27

26:                                               ; preds = %21
  store i32 1, ptr %2, align 4
  store i32 1, ptr %7, align 4
  br label %93

27:                                               ; preds = %21
  %28 = load ptr, ptr %3, align 8, !tbaa !4
  %29 = getelementptr inbounds nuw %struct.test_fixture, ptr %28, i32 0, i32 3
  %30 = load ptr, ptr %29, align 8, !tbaa !21
  %31 = call i32 @ossl_cmp_hdr_get_pvno(ptr noundef %30)
  %32 = call i32 @test_int_eq(ptr noundef @.str.13, i32 noundef 422, ptr noundef @.str.19, ptr noundef @.str.68, i32 noundef %31, i32 noundef 2)
  %33 = icmp ne i32 %32, 0
  br i1 %33, label %35, label %34

34:                                               ; preds = %27
  store i32 0, ptr %2, align 4
  store i32 1, ptr %7, align 4
  br label %93

35:                                               ; preds = %27
  %36 = load ptr, ptr %3, align 8, !tbaa !4
  %37 = getelementptr inbounds nuw %struct.test_fixture, ptr %36, i32 0, i32 3
  %38 = load ptr, ptr %37, align 8, !tbaa !21
  %39 = call ptr @ossl_cmp_hdr_get0_senderNonce(ptr noundef %38)
  store ptr %39, ptr %4, align 8, !tbaa !22
  %40 = load ptr, ptr %4, align 8, !tbaa !22
  %41 = load ptr, ptr %3, align 8, !tbaa !4
  %42 = getelementptr inbounds nuw %struct.test_fixture, ptr %41, i32 0, i32 2
  %43 = load ptr, ptr %42, align 8, !tbaa !16
  %44 = getelementptr inbounds nuw %struct.ossl_cmp_ctx_st, ptr %43, i32 0, i32 41
  %45 = load ptr, ptr %44, align 8, !tbaa !24
  %46 = call i32 @ASN1_OCTET_STRING_cmp(ptr noundef %40, ptr noundef %45)
  %47 = call i32 @test_int_eq(ptr noundef @.str.13, i32 noundef 427, ptr noundef @.str.27, ptr noundef @.str.69, i32 noundef 0, i32 noundef %46)
  %48 = icmp ne i32 %47, 0
  br i1 %48, label %50, label %49

49:                                               ; preds = %35
  store i32 0, ptr %2, align 4
  store i32 1, ptr %7, align 4
  br label %93

50:                                               ; preds = %35
  %51 = load ptr, ptr %3, align 8, !tbaa !4
  %52 = getelementptr inbounds nuw %struct.test_fixture, ptr %51, i32 0, i32 3
  %53 = load ptr, ptr %52, align 8, !tbaa !21
  %54 = call ptr @OSSL_CMP_HDR_get0_transactionID(ptr noundef %53)
  store ptr %54, ptr %5, align 8, !tbaa !22
  %55 = load ptr, ptr %5, align 8, !tbaa !22
  %56 = load ptr, ptr %3, align 8, !tbaa !4
  %57 = getelementptr inbounds nuw %struct.test_fixture, ptr %56, i32 0, i32 2
  %58 = load ptr, ptr %57, align 8, !tbaa !16
  %59 = getelementptr inbounds nuw %struct.ossl_cmp_ctx_st, ptr %58, i32 0, i32 40
  %60 = load ptr, ptr %59, align 8, !tbaa !61
  %61 = call i32 @ASN1_OCTET_STRING_cmp(ptr noundef %55, ptr noundef %60)
  %62 = icmp eq i32 %61, 0
  %63 = zext i1 %62 to i32
  %64 = icmp ne i32 %63, 0
  %65 = zext i1 %64 to i32
  %66 = call i32 @test_true(ptr noundef @.str.13, i32 noundef 431, ptr noundef @.str.70, i32 noundef %65)
  %67 = icmp ne i32 %66, 0
  br i1 %67, label %69, label %68

68:                                               ; preds = %50
  store i32 0, ptr %2, align 4
  store i32 1, ptr %7, align 4
  br label %93

69:                                               ; preds = %50
  %70 = load ptr, ptr %3, align 8, !tbaa !4
  %71 = getelementptr inbounds nuw %struct.test_fixture, ptr %70, i32 0, i32 3
  %72 = load ptr, ptr %71, align 8, !tbaa !21
  %73 = call ptr @OSSL_CMP_HDR_get0_recipNonce(ptr noundef %72)
  store ptr %73, ptr %4, align 8, !tbaa !22
  %74 = load ptr, ptr %3, align 8, !tbaa !4
  %75 = getelementptr inbounds nuw %struct.test_fixture, ptr %74, i32 0, i32 2
  %76 = load ptr, ptr %75, align 8, !tbaa !16
  %77 = getelementptr inbounds nuw %struct.ossl_cmp_ctx_st, ptr %76, i32 0, i32 42
  %78 = load ptr, ptr %77, align 8, !tbaa !62
  store ptr %78, ptr %6, align 8, !tbaa !22
  %79 = load ptr, ptr %6, align 8, !tbaa !22
  %80 = icmp ne ptr %79, null
  br i1 %80, label %81, label %92

81:                                               ; preds = %69
  %82 = load ptr, ptr %4, align 8, !tbaa !22
  %83 = call i32 @test_ptr(ptr noundef @.str.13, i32 noundef 437, ptr noundef @.str.71, ptr noundef %82)
  %84 = icmp ne i32 %83, 0
  br i1 %84, label %85, label %91

85:                                               ; preds = %81
  %86 = load ptr, ptr %4, align 8, !tbaa !22
  %87 = load ptr, ptr %6, align 8, !tbaa !22
  %88 = call i32 @ASN1_OCTET_STRING_cmp(ptr noundef %86, ptr noundef %87)
  %89 = call i32 @test_int_eq(ptr noundef @.str.13, i32 noundef 439, ptr noundef @.str.27, ptr noundef @.str.72, i32 noundef 0, i32 noundef %88)
  %90 = icmp ne i32 %89, 0
  br i1 %90, label %92, label %91

91:                                               ; preds = %85, %81
  store i32 0, ptr %2, align 4
  store i32 1, ptr %7, align 4
  br label %93

92:                                               ; preds = %85, %69
  store i32 1, ptr %2, align 4
  store i32 1, ptr %7, align 4
  br label %93

93:                                               ; preds = %92, %91, %68, %49, %34, %26, %20
  call void @llvm.lifetime.end.p0(i64 8, ptr %6) #7
  call void @llvm.lifetime.end.p0(i64 8, ptr %5) #7
  call void @llvm.lifetime.end.p0(i64 8, ptr %4) #7
  %94 = load i32, ptr %2, align 4
  ret i32 %94
}