; Function Attrs: nounwind uwtable
define internal fastcc range(i32 0, 2) i32 @execute_HDR_init_test(ptr noundef nonnull readonly captures(none) %0) unnamed_addr #1 {
  %2 = getelementptr inbounds nuw i8, ptr %0, i64 8
  %3 = load i32, ptr %2, align 8, !tbaa !4
  %4 = getelementptr inbounds nuw i8, ptr %0, i64 16
  %5 = load ptr, ptr %4, align 8, !tbaa !14
  %6 = getelementptr inbounds nuw i8, ptr %0, i64 24
  %7 = load ptr, ptr %6, align 8, !tbaa !13
  %8 = tail call i32 @ossl_cmp_hdr_init(ptr noundef %5, ptr noundef %7) #8
  %9 = tail call i32 @test_int_eq(ptr noundef nonnull @.str.13, i32 noundef 417, ptr noundef nonnull @.str.67, ptr noundef nonnull @.str.25, i32 noundef %3, i32 noundef %8) #8
  %.not = icmp eq i32 %9, 0
  br i1 %.not, label %47, label %10

10:                                               ; preds = %1
  %11 = load i32, ptr %2, align 8, !tbaa !4
  %12 = icmp eq i32 %11, 0
  br i1 %12, label %47, label %13

13:                                               ; preds = %10
  %14 = load ptr, ptr %6, align 8, !tbaa !13
  %15 = tail call i32 @ossl_cmp_hdr_get_pvno(ptr noundef %14) #8
  %16 = tail call i32 @test_int_eq(ptr noundef nonnull @.str.13, i32 noundef 422, ptr noundef nonnull @.str.19, ptr noundef nonnull @.str.68, i32 noundef %15, i32 noundef 2) #8
  %.not18 = icmp eq i32 %16, 0
  br i1 %.not18, label %47, label %17

17:                                               ; preds = %13
  %18 = load ptr, ptr %6, align 8, !tbaa !13
  %19 = tail call ptr @ossl_cmp_hdr_get0_senderNonce(ptr noundef %18) #8
  %20 = load ptr, ptr %4, align 8, !tbaa !14
  %21 = getelementptr inbounds nuw i8, ptr %20, i64 288
  %22 = load ptr, ptr %21, align 8, !tbaa !15
  %23 = tail call i32 @ASN1_OCTET_STRING_cmp(ptr noundef %19, ptr noundef %22) #8
  %24 = tail call i32 @test_int_eq(ptr noundef nonnull @.str.13, i32 noundef 427, ptr noundef nonnull @.str.27, ptr noundef nonnull @.str.69, i32 noundef 0, i32 noundef %23) #8
  %.not19 = icmp eq i32 %24, 0
  br i1 %.not19, label %47, label %25

25:                                               ; preds = %17
  %26 = load ptr, ptr %6, align 8, !tbaa !13
  %27 = tail call ptr @OSSL_CMP_HDR_get0_transactionID(ptr noundef %26) #8
  %28 = load ptr, ptr %4, align 8, !tbaa !14
  %29 = getelementptr inbounds nuw i8, ptr %28, i64 280
  %30 = load ptr, ptr %29, align 8, !tbaa !51
  %31 = tail call i32 @ASN1_OCTET_STRING_cmp(ptr noundef %27, ptr noundef %30) #8
  %32 = icmp eq i32 %31, 0
  %33 = zext i1 %32 to i32
  %34 = tail call i32 @test_true(ptr noundef nonnull @.str.13, i32 noundef 431, ptr noundef nonnull @.str.70, i32 noundef %33) #8
  %.not20 = icmp eq i32 %34, 0
  br i1 %.not20, label %47, label %35

35:                                               ; preds = %25
  %36 = load ptr, ptr %6, align 8, !tbaa !13
  %37 = tail call ptr @OSSL_CMP_HDR_get0_recipNonce(ptr noundef %36) #8
  %38 = load ptr, ptr %4, align 8, !tbaa !14
  %39 = getelementptr inbounds nuw i8, ptr %38, i64 296
  %40 = load ptr, ptr %39, align 8, !tbaa !52
  %.not21 = icmp eq ptr %40, null
  br i1 %.not21, label %46, label %41

41:                                               ; preds = %35
  %42 = tail call i32 @test_ptr(ptr noundef nonnull @.str.13, i32 noundef 437, ptr noundef nonnull @.str.71, ptr noundef %37) #8
  %.not22 = icmp eq i32 %42, 0
  br i1 %.not22, label %47, label %43

43:                                               ; preds = %41
  %44 = tail call i32 @ASN1_OCTET_STRING_cmp(ptr noundef %37, ptr noundef nonnull %40) #8
  %45 = tail call i32 @test_int_eq(ptr noundef nonnull @.str.13, i32 noundef 439, ptr noundef nonnull @.str.27, ptr noundef nonnull @.str.72, i32 noundef 0, i32 noundef %44) #8
  %.not23 = icmp eq i32 %45, 0
  br i1 %.not23, label %47, label %46

46:                                               ; preds = %43, %35
  br label %47

47:                                               ; preds = %41, %43, %25, %17, %13, %10, %1, %46
  %.0 = phi i32 [ 1, %46 ], [ 0, %1 ], [ 1, %10 ], [ 0, %13 ], [ 0, %17 ], [ 0, %25 ], [ 0, %43 ], [ 0, %41 ]
  ret i32 %.0
}